; Function Attrs: mustprogress nounwind uwtable
define hidden void @_ZN28TemplateInterpreterGenerator25generate_counter_overflowER5Label(ptr nocapture noundef nonnull readonly align 8 dereferenceable(24) %0, ptr noundef nonnull align 8 dereferenceable(33) %1) local_unnamed_addr #0 align 2 {
  %3 = alloca %class.Address, align 16
  %4 = load ptr, ptr %0, align 8
  %5 = load i8, ptr @PrintInterpreter, align 1
  %6 = trunc i8 %5 to i1
  br i1 %6, label %7, label %_ZN12Disassembler4hookI25InterpreterMacroAssemblerEEPT_PKciS3_.exit

7:                                                ; preds = %2
  tail call void @_ZN12Disassembler5_hookEPKciP14MacroAssembler(ptr noundef nonnull @.str, i32 noundef 452, ptr noundef %4) #7
  br label %_ZN12Disassembler4hookI25InterpreterMacroAssemblerEEPT_PKciS3_.exit

_ZN12Disassembler4hookI25InterpreterMacroAssemblerEEPT_PKciS3_.exit: ; preds = %2, %7
  tail call void @_ZN9Assembler4movlE8Registeri(ptr noundef nonnull align 8 dereferenceable(40) %4, i32 6, i32 noundef 0) #7
  %8 = load ptr, ptr %0, align 8
  %9 = load i8, ptr @PrintInterpreter, align 1
  %10 = trunc i8 %9 to i1
  br i1 %10, label %11, label %_ZN12Disassembler4hookI25InterpreterMacroAssemblerEEPT_PKciS3_.exit8

11:                                               ; preds = %_ZN12Disassembler4hookI25InterpreterMacroAssemblerEEPT_PKciS3_.exit
  tail call void @_ZN12Disassembler5_hookEPKciP14MacroAssembler(ptr noundef nonnull @.str, i32 noundef 453, ptr noundef %8) #7
  br label %_ZN12Disassembler4hookI25InterpreterMacroAssemblerEEPT_PKciS3_.exit8

_ZN12Disassembler4hookI25InterpreterMacroAssemblerEEPT_PKciS3_.exit8: ; preds = %_ZN12Disassembler4hookI25InterpreterMacroAssemblerEEPT_PKciS3_.exit, %11
  tail call void @_ZN14MacroAssembler7call_VME8RegisterPhS0_b(ptr noundef nonnull align 8 dereferenceable(40) %8, i32 -1, ptr noundef nonnull @_ZN18InterpreterRuntime26frequency_counter_overflowEP10JavaThreadPh, i32 6, i1 noundef zeroext true) #7
  %12 = load ptr, ptr %0, align 8
  %13 = load i8, ptr @PrintInterpreter, align 1
  %14 = trunc i8 %13 to i1
  br i1 %14, label %15, label %_ZN12Disassembler4hookI25InterpreterMacroAssemblerEEPT_PKciS3_.exit9

15:                                               ; preds = %_ZN12Disassembler4hookI25InterpreterMacroAssemblerEEPT_PKciS3_.exit8
  tail call void @_ZN12Disassembler5_hookEPKciP14MacroAssembler(ptr noundef nonnull @.str, i32 noundef 458, ptr noundef %12) #7
  br label %_ZN12Disassembler4hookI25InterpreterMacroAssemblerEEPT_PKciS3_.exit9

_ZN12Disassembler4hookI25InterpreterMacroAssemblerEEPT_PKciS3_.exit9: ; preds = %_ZN12Disassembler4hookI25InterpreterMacroAssemblerEEPT_PKciS3_.exit8, %15
  store <4 x i32> <i32 5, i32 -1, i32 -1, i32 -1>, ptr %3, align 16
  %16 = getelementptr inbounds i8, ptr %3, i64 16
  store i32 -24, ptr %16, align 16
  %17 = getelementptr inbounds i8, ptr %3, i64 20
  store i8 0, ptr %17, align 4
  %18 = getelementptr inbounds i8, ptr %3, i64 24
  store ptr getelementptr inbounds inrange(-16, 72) (i8, ptr @_ZTV10Relocation, i64 16), ptr %18, align 8
  %19 = getelementptr inbounds i8, ptr %3, i64 32
  store ptr null, ptr %19, align 16
  %20 = getelementptr inbounds i8, ptr %3, i64 40
  store i32 0, ptr %20, align 8
  call void @_ZN14MacroAssembler6movptrE8Register7Address(ptr noundef nonnull align 8 dereferenceable(40) %12, i32 3, ptr noundef nonnull %3) #7
  %21 = load ptr, ptr %0, align 8
  %22 = load i8, ptr @PrintInterpreter, align 1
  %23 = trunc i8 %22 to i1
  br i1 %23, label %24, label %_ZN12Disassembler4hookI25InterpreterMacroAssemblerEEPT_PKciS3_.exit10

24:                                               ; preds = %_ZN12Disassembler4hookI25InterpreterMacroAssemblerEEPT_PKciS3_.exit9
  call void @_ZN12Disassembler5_hookEPKciP14MacroAssembler(ptr noundef nonnull @.str, i32 noundef 461, ptr noundef %21) #7
  br label %_ZN12Disassembler4hookI25InterpreterMacroAssemblerEEPT_PKciS3_.exit10

_ZN12Disassembler4hookI25InterpreterMacroAssemblerEEPT_PKciS3_.exit10: ; preds = %_ZN12Disassembler4hookI25InterpreterMacroAssemblerEEPT_PKciS3_.exit9, %24
  call void @_ZN9Assembler3jmpER5Labelb(ptr noundef nonnull align 8 dereferenceable(40) %21, ptr noundef nonnull align 8 dereferenceable(33) %1, i1 noundef zeroext false) #7
  ret void
}